; Function Attrs: nounwind uwtable
define internal fastcc i32 @parse_count(ptr noundef %0) unnamed_addr #2 {
  %2 = alloca ptr, align 8
  call void @llvm.lifetime.start.p0(i64 8, ptr nonnull %2) #26
  %3 = tail call ptr @__errno_location() #29
  store i32 0, ptr %3, align 4, !tbaa !42
  %4 = call i64 @strtol(ptr noundef %0, ptr noundef nonnull %2, i32 noundef 10) #26
  %5 = load i32, ptr %3, align 4, !tbaa !42
  %.not.i = icmp eq i32 %5, 0
  br i1 %.not.i, label %6, label %11

6:                                                ; preds = %1
  %7 = load ptr, ptr %2, align 8, !tbaa !200
  %8 = load i8, ptr %7, align 1, !tbaa !28
  %.not7.i = icmp eq i8 %8, 0
  %9 = icmp ne ptr %7, %0
  %or.cond.not11.i = and i1 %9, %.not7.i
  %10 = add i64 %4, 2147483648
  %.not8.i = icmp ult i64 %10, 4294967296
  %or.cond9.i = select i1 %or.cond.not11.i, i1 %.not8.i, i1 false
  br i1 %or.cond9.i, label %12, label %11

11:                                               ; preds = %6, %1
  call void @llvm.lifetime.end.p0(i64 8, ptr nonnull %2) #26
  tail call void (ptr, ...) @die(ptr noundef nonnull @.str.188, ptr noundef %0) #28
  unreachable

12:                                               ; preds = %6
  %13 = trunc i64 %4 to i32
  call void @llvm.lifetime.end.p0(i64 8, ptr nonnull %2) #26
  ret i32 %13
}